target datalayout = "e-m:e-p270:32:32-p271:32:32-p272:64:64-i64:64-i128:128-f80:128-n8:16:32:64-S128"
target triple = "x86_64-pc-linux-gnu"

%struct.translation_ctx_st = type { ptr, i32, i32, ptr, i32, i32, ptr, i64, ptr, ptr, [50 x i8], ptr, ptr, i64 }
%struct.translation_st = type { i32, i32, i32, i32, i32, ptr, ptr, ptr, i32, ptr }
%struct.ossl_param_st = type { ptr, i32, ptr, i64, i64 }
%struct.evp_pkey_ctx_st = type { i32, ptr, ptr, ptr, ptr, %union.anon, %struct.anon.4, ptr, ptr, ptr, i32, i32, ptr, ptr, ptr, ptr, ptr, i8, ptr }
%union.anon = type { %struct.anon.0 }
%struct.anon.0 = type { ptr, ptr }
%struct.anon.4 = type { ptr, ptr, i64, i8 }
%struct.evp_pkey_method_st = type { i32, i32, ptr, ptr, ptr, ptr, ptr, ptr, ptr, ptr, ptr, ptr, ptr, ptr, ptr, ptr, ptr, ptr, ptr, ptr, ptr, ptr, ptr, ptr, ptr, ptr, ptr, ptr, ptr, ptr, ptr, ptr, ptr }

@.str = private unnamed_addr constant [46 x i8] c"../openssl/crypto/evp/ctrl_params_translate.c\00", align 1
@__func__.evp_pkey_ctx_ctrl_to_param = private unnamed_addr constant [27 x i8] c"evp_pkey_ctx_ctrl_to_param\00", align 1

; Function Attrs: nounwind uwtable
define internal i32 @cleanup_translation_ctx(i32 noundef %0, ptr noundef %1, ptr noundef %2) #0 {
  %4 = alloca i32, align 4
  %5 = alloca ptr, align 8
  %6 = alloca ptr, align 8
  store i32 %0, ptr %4, align 4, !tbaa !8
  store ptr %1, ptr %5, align 8, !tbaa !11
  store ptr %2, ptr %6, align 8, !tbaa !43
  %7 = load ptr, ptr %6, align 8, !tbaa !43
  %8 = getelementptr inbounds nuw %struct.translation_ctx_st, ptr %7, i32 0, i32 11
  %9 = load ptr, ptr %8, align 8, !tbaa !53
  %10 = icmp ne ptr %9, null
  br i1 %10, label %11, label %15

11:                                               ; preds = %3
  %12 = load ptr, ptr %6, align 8, !tbaa !43
  %13 = getelementptr inbounds nuw %struct.translation_ctx_st, ptr %12, i32 0, i32 11
  %14 = load ptr, ptr %13, align 8, !tbaa !53
  call void @CRYPTO_free(ptr noundef %14, ptr noundef @.str, i32 noundef 713)
  br label %15

15:                                               ; preds = %11, %3
  %16 = load ptr, ptr %6, align 8, !tbaa !43
  %17 = getelementptr inbounds nuw %struct.translation_ctx_st, ptr %16, i32 0, i32 11
  store ptr null, ptr %17, align 8, !tbaa !53
  ret i32 1
}

; Function Attrs: nounwind uwtable
define internal ptr @lookup_evp_pkey_ctx_translation(ptr noundef %0) #0 {
  %2 = alloca ptr, align 8
  store ptr %0, ptr %2, align 8, !tbaa !11
  %3 = load ptr, ptr %2, align 8, !tbaa !11
  %4 = call ptr @lookup_translation(ptr noundef %3, ptr noundef @evp_pkey_ctx_translations, i64 noundef 86)
  ret ptr %4
}

; Function Attrs: nounwind uwtable
define i32 @evp_pkey_ctx_ctrl_to_param(ptr noundef %0, i32 noundef %1, i32 noundef %2, i32 noundef %3, i32 noundef %4, ptr noundef %5) #0 {
  %7 = alloca i32, align 4
  %8 = alloca ptr, align 8
  %9 = alloca i32, align 4
  %10 = alloca i32, align 4
  %11 = alloca i32, align 4
  %12 = alloca i32, align 4
  %13 = alloca ptr, align 8
  %14 = alloca %struct.translation_ctx_st, align 8
  %15 = alloca %struct.translation_st, align 8
  %16 = alloca ptr, align 8
  %17 = alloca [2 x %struct.ossl_param_st], align 16
  %18 = alloca i32, align 4
  %19 = alloca ptr, align 8
  %20 = alloca i32, align 4
  store ptr %0, ptr %8, align 8, !tbaa !3
  store i32 %1, ptr %9, align 4, !tbaa !8
  store i32 %2, ptr %10, align 4, !tbaa !8
  store i32 %3, ptr %11, align 4, !tbaa !8
  store i32 %4, ptr %12, align 4, !tbaa !8
  store ptr %5, ptr %13, align 8, !tbaa !10
  call void @llvm.lifetime.start.p0(i64 144, ptr %14) #9
  call void @llvm.memset.p0.i64(ptr align 8 %14, i8 0, i64 144, i1 false)
  call void @llvm.lifetime.start.p0(i64 64, ptr %15) #9
  call void @llvm.memset.p0.i64(ptr align 8 %15, i8 0, i64 64, i1 false)
  call void @llvm.lifetime.start.p0(i64 8, ptr %16) #9
  store ptr null, ptr %16, align 8, !tbaa !11
  call void @llvm.lifetime.start.p0(i64 80, ptr %17) #9
  call void @llvm.memset.p0.i64(ptr align 16 %17, i8 0, i64 80, i1 false)
  call void @llvm.lifetime.start.p0(i64 4, ptr %18) #9
  call void @llvm.lifetime.start.p0(i64 8, ptr %19) #9
  store ptr @default_fixup_args, ptr %19, align 8, !tbaa !10
  %21 = load i32, ptr %9, align 4, !tbaa !8
  %22 = icmp eq i32 %21, -1
  br i1 %22, label %23, label %27

23:                                               ; preds = %6
  %24 = load ptr, ptr %8, align 8, !tbaa !3
  %25 = getelementptr inbounds nuw %struct.evp_pkey_ctx_st, ptr %24, i32 0, i32 11
  %26 = load i32, ptr %25, align 4, !tbaa !13
  store i32 %26, ptr %9, align 4, !tbaa !8
  br label %27

27:                                               ; preds = %23, %6
  %28 = load i32, ptr %11, align 4, !tbaa !8
  %29 = getelementptr inbounds nuw %struct.translation_st, ptr %15, i32 0, i32 4
  store i32 %28, ptr %29, align 8, !tbaa !25
  %30 = load i32, ptr %9, align 4, !tbaa !8
  %31 = getelementptr inbounds nuw %struct.translation_st, ptr %15, i32 0, i32 2
  store i32 %30, ptr %31, align 8, !tbaa !27
  %32 = getelementptr inbounds nuw %struct.translation_st, ptr %15, i32 0, i32 1
  store i32 %30, ptr %32, align 4, !tbaa !28
  %33 = load i32, ptr %10, align 4, !tbaa !8
  %34 = getelementptr inbounds nuw %struct.translation_st, ptr %15, i32 0, i32 3
  store i32 %33, ptr %34, align 4, !tbaa !29
  %35 = call ptr @lookup_evp_pkey_ctx_translation(ptr noundef %15)
  store ptr %35, ptr %16, align 8, !tbaa !11
  %36 = load ptr, ptr %16, align 8, !tbaa !11
  %37 = icmp eq ptr %36, null
  br i1 %37, label %38, label %39

38:                                               ; preds = %27
  call void @ERR_new()
  call void @ERR_set_debug(ptr noundef @.str, i32 noundef 2726, ptr noundef @__func__.evp_pkey_ctx_ctrl_to_param)
  call void (i32, i32, ptr, ...) @ERR_set_error(i32 noundef 6, i32 noundef 147, ptr noundef null)
  store i32 -2, ptr %7, align 4
  store i32 1, ptr %20, align 4
  br label %124

39:                                               ; preds = %27
  %40 = load ptr, ptr %8, align 8, !tbaa !3
  %41 = getelementptr inbounds nuw %struct.evp_pkey_ctx_st, ptr %40, i32 0, i32 12
  %42 = load ptr, ptr %41, align 8, !tbaa !30
  %43 = icmp ne ptr %42, null
  br i1 %43, label %44, label %65

44:                                               ; preds = %39
  %45 = load ptr, ptr %8, align 8, !tbaa !3
  %46 = getelementptr inbounds nuw %struct.evp_pkey_ctx_st, ptr %45, i32 0, i32 12
  %47 = load ptr, ptr %46, align 8, !tbaa !30
  %48 = getelementptr inbounds nuw %struct.evp_pkey_method_st, ptr %47, i32 0, i32 0
  %49 = load i32, ptr %48, align 8, !tbaa !31
  %50 = load ptr, ptr %16, align 8, !tbaa !11
  %51 = getelementptr inbounds nuw %struct.translation_st, ptr %50, i32 0, i32 1
  %52 = load i32, ptr %51, align 4, !tbaa !28
  %53 = icmp ne i32 %49, %52
  br i1 %53, label %54, label %65

54:                                               ; preds = %44
  %55 = load ptr, ptr %8, align 8, !tbaa !3
  %56 = getelementptr inbounds nuw %struct.evp_pkey_ctx_st, ptr %55, i32 0, i32 12
  %57 = load ptr, ptr %56, align 8, !tbaa !30
  %58 = getelementptr inbounds nuw %struct.evp_pkey_method_st, ptr %57, i32 0, i32 0
  %59 = load i32, ptr %58, align 8, !tbaa !31
  %60 = load ptr, ptr %16, align 8, !tbaa !11
  %61 = getelementptr inbounds nuw %struct.translation_st, ptr %60, i32 0, i32 2
  %62 = load i32, ptr %61, align 8, !tbaa !27
  %63 = icmp ne i32 %59, %62
  br i1 %63, label %64, label %65

64:                                               ; preds = %54
  store i32 -1, ptr %7, align 4
  store i32 1, ptr %20, align 4
  br label %124

65:                                               ; preds = %54, %44, %39
  %66 = load ptr, ptr %16, align 8, !tbaa !11
  %67 = getelementptr inbounds nuw %struct.translation_st, ptr %66, i32 0, i32 9
  %68 = load ptr, ptr %67, align 8, !tbaa !33
  %69 = icmp ne ptr %68, null
  br i1 %69, label %70, label %74

70:                                               ; preds = %65
  %71 = load ptr, ptr %16, align 8, !tbaa !11
  %72 = getelementptr inbounds nuw %struct.translation_st, ptr %71, i32 0, i32 9
  %73 = load ptr, ptr %72, align 8, !tbaa !33
  store ptr %73, ptr %19, align 8, !tbaa !10
  br label %74

74:                                               ; preds = %70, %65
  %75 = load ptr, ptr %16, align 8, !tbaa !11
  %76 = getelementptr inbounds nuw %struct.translation_st, ptr %75, i32 0, i32 0
  %77 = load i32, ptr %76, align 8, !tbaa !34
  %78 = getelementptr inbounds nuw %struct.translation_ctx_st, ptr %14, i32 0, i32 1
  store i32 %77, ptr %78, align 8, !tbaa !35
  %79 = load i32, ptr %11, align 4, !tbaa !8
  %80 = getelementptr inbounds nuw %struct.translation_ctx_st, ptr %14, i32 0, i32 2
  store i32 %79, ptr %80, align 4, !tbaa !38
  %81 = load i32, ptr %12, align 4, !tbaa !8
  %82 = getelementptr inbounds nuw %struct.translation_ctx_st, ptr %14, i32 0, i32 5
  store i32 %81, ptr %82, align 4, !tbaa !39
  %83 = load ptr, ptr %13, align 8, !tbaa !10
  %84 = getelementptr inbounds nuw %struct.translation_ctx_st, ptr %14, i32 0, i32 6
  store ptr %83, ptr %84, align 8, !tbaa !40
  %85 = load ptr, ptr %8, align 8, !tbaa !3
  %86 = getelementptr inbounds nuw %struct.translation_ctx_st, ptr %14, i32 0, i32 0
  store ptr %85, ptr %86, align 8, !tbaa !41
  %87 = getelementptr inbounds [2 x %struct.ossl_param_st], ptr %17, i64 0, i64 0
  %88 = getelementptr inbounds nuw %struct.translation_ctx_st, ptr %14, i32 0, i32 8
  store ptr %87, ptr %88, align 8, !tbaa !42
  %89 = load ptr, ptr %19, align 8, !tbaa !10
  %90 = load ptr, ptr %16, align 8, !tbaa !11
  %91 = call i32 %89(i32 noundef 1, ptr noundef %90, ptr noundef %14)
  store i32 %91, ptr %18, align 4, !tbaa !8
  %92 = load i32, ptr %18, align 4, !tbaa !8
  %93 = icmp sgt i32 %92, 0
  br i1 %93, label %94, label %109

94:                                               ; preds = %74
  %95 = getelementptr inbounds nuw %struct.translation_ctx_st, ptr %14, i32 0, i32 1
  %96 = load i32, ptr %95, align 8, !tbaa !35
  switch i32 %96, label %97 [
    i32 1, label %98
    i32 2, label %103
  ]

97:                                               ; preds = %94
  br label %108

98:                                               ; preds = %94
  %99 = load ptr, ptr %8, align 8, !tbaa !3
  %100 = getelementptr inbounds nuw %struct.translation_ctx_st, ptr %14, i32 0, i32 8
  %101 = load ptr, ptr %100, align 8, !tbaa !42
  %102 = call i32 @evp_pkey_ctx_get_params_strict(ptr noundef %99, ptr noundef %101)
  store i32 %102, ptr %18, align 4, !tbaa !8
  br label %108

103:                                              ; preds = %94
  %104 = load ptr, ptr %8, align 8, !tbaa !3
  %105 = getelementptr inbounds nuw %struct.translation_ctx_st, ptr %14, i32 0, i32 8
  %106 = load ptr, ptr %105, align 8, !tbaa !42
  %107 = call i32 @evp_pkey_ctx_set_params_strict(ptr noundef %104, ptr noundef %106)
  store i32 %107, ptr %18, align 4, !tbaa !8
  br label %108

108:                                              ; preds = %103, %98, %97
  br label %109

109:                                              ; preds = %108, %74
  %110 = load i32, ptr %18, align 4, !tbaa !8
  %111 = icmp sgt i32 %110, 0
  br i1 %111, label %112, label %120

112:                                              ; preds = %109
  %113 = load i32, ptr %18, align 4, !tbaa !8
  %114 = getelementptr inbounds nuw %struct.translation_ctx_st, ptr %14, i32 0, i32 5
  store i32 %113, ptr %114, align 4, !tbaa !39
  %115 = load ptr, ptr %19, align 8, !tbaa !10
  %116 = load ptr, ptr %16, align 8, !tbaa !11
  %117 = call i32 %115(i32 noundef 2, ptr noundef %116, ptr noundef %14)
  %118 = getelementptr inbounds nuw %struct.translation_ctx_st, ptr %14, i32 0, i32 5
  %119 = load i32, ptr %118, align 4, !tbaa !39
  store i32 %119, ptr %18, align 4, !tbaa !8
  br label %120

120:                                              ; preds = %112, %109
  %121 = load ptr, ptr %16, align 8, !tbaa !11
  %122 = call i32 @cleanup_translation_ctx(i32 noundef 2, ptr noundef %121, ptr noundef %14)
  %123 = load i32, ptr %18, align 4, !tbaa !8
  store i32 %123, ptr %7, align 4
  store i32 1, ptr %20, align 4
  br label %124

124:                                              ; preds = %120, %64, %38
  call void @llvm.lifetime.end.p0(i64 8, ptr %19) #9
  call void @llvm.lifetime.end.p0(i64 4, ptr %18) #9
  call void @llvm.lifetime.end.p0(i64 80, ptr %17) #9
  call void @llvm.lifetime.end.p0(i64 8, ptr %16) #9
  call void @llvm.lifetime.end.p0(i64 64, ptr %15) #9
  call void @llvm.lifetime.end.p0(i64 144, ptr %14) #9
  %125 = load i32, ptr %7, align 4
  ret i32 %125
}