; Function Attrs: nounwind uwtable
define i32 @evp_pkey_ctx_ctrl_to_param(ptr noundef %0, i32 noundef %1, i32 noundef %2, i32 noundef %3, i32 noundef %4, ptr noundef %5) local_unnamed_addr #0 {
  %7 = alloca %struct.translation_ctx_st, align 8
  %8 = alloca %struct.translation_st, align 8
  %9 = alloca [2 x %struct.ossl_param_st], align 16
  call void @llvm.lifetime.start.p0(i64 144, ptr nonnull %7) #8
  call void @llvm.memset.p0.i64(ptr noundef nonnull align 8 dereferenceable(144) %7, i8 0, i64 144, i1 false)
  call void @llvm.lifetime.start.p0(i64 64, ptr nonnull %8) #8
  call void @llvm.memset.p0.i64(ptr noundef nonnull align 8 dereferenceable(64) %8, i8 0, i64 64, i1 false)
  call void @llvm.lifetime.start.p0(i64 80, ptr nonnull %9) #8
  call void @llvm.memset.p0.i64(ptr noundef nonnull align 16 dereferenceable(80) %9, i8 0, i64 80, i1 false)
  %10 = icmp eq i32 %1, -1
  br i1 %10, label %11, label %14

11:                                               ; preds = %6
  %12 = getelementptr inbounds nuw i8, ptr %0, i64 116
  %13 = load i32, ptr %12, align 4, !tbaa !3
  br label %14

14:                                               ; preds = %11, %6
  %.031 = phi i32 [ %13, %11 ], [ %1, %6 ]
  %15 = getelementptr inbounds nuw i8, ptr %8, i64 16
  store i32 %3, ptr %15, align 8, !tbaa !19
  %16 = getelementptr inbounds nuw i8, ptr %8, i64 8
  store i32 %.031, ptr %16, align 8, !tbaa !21
  %17 = getelementptr inbounds nuw i8, ptr %8, i64 4
  store i32 %.031, ptr %17, align 4, !tbaa !22
  %18 = getelementptr inbounds nuw i8, ptr %8, i64 12
  store i32 %2, ptr %18, align 4, !tbaa !23
  %19 = call fastcc ptr @lookup_translation(ptr noundef nonnull %8, ptr noundef nonnull @evp_pkey_ctx_translations, i64 noundef 86)
  %20 = icmp eq ptr %19, null
  br i1 %20, label %21, label %22

21:                                               ; preds = %14
  tail call void @ERR_new() #8
  tail call void @ERR_set_debug(ptr noundef nonnull @.str, i32 noundef 2726, ptr noundef nonnull @__func__.evp_pkey_ctx_ctrl_to_param) #8
  tail call void (i32, i32, ptr, ...) @ERR_set_error(i32 noundef 6, i32 noundef 147, ptr noundef null) #8
  br label %cleanup_translation_ctx.exit

22:                                               ; preds = %14
  %23 = getelementptr inbounds nuw i8, ptr %0, i64 120
  %24 = load ptr, ptr %23, align 8, !tbaa !24
  %.not = icmp eq ptr %24, null
  br i1 %.not, label %32, label %25

25:                                               ; preds = %22
  %26 = load i32, ptr %24, align 8, !tbaa !25
  %27 = getelementptr inbounds nuw i8, ptr %19, i64 4
  %28 = load i32, ptr %27, align 4, !tbaa !22
  %.not39 = icmp eq i32 %26, %28
  br i1 %.not39, label %32, label %29

29:                                               ; preds = %25
  %30 = getelementptr inbounds nuw i8, ptr %19, i64 8
  %31 = load i32, ptr %30, align 8, !tbaa !21
  %.not40 = icmp eq i32 %26, %31
  br i1 %.not40, label %32, label %cleanup_translation_ctx.exit

32:                                               ; preds = %29, %25, %22
  %33 = getelementptr inbounds nuw i8, ptr %19, i64 56
  %34 = load ptr, ptr %33, align 8, !tbaa !27
  %.not41 = icmp eq ptr %34, null
  %spec.select = select i1 %.not41, ptr @default_fixup_args, ptr %34
  %35 = load i32, ptr %19, align 8, !tbaa !28
  %36 = getelementptr inbounds nuw i8, ptr %7, i64 8
  store i32 %35, ptr %36, align 8, !tbaa !29
  %37 = getelementptr inbounds nuw i8, ptr %7, i64 12
  store i32 %3, ptr %37, align 4, !tbaa !33
  %38 = getelementptr inbounds nuw i8, ptr %7, i64 28
  store i32 %4, ptr %38, align 4, !tbaa !34
  %39 = getelementptr inbounds nuw i8, ptr %7, i64 32
  store ptr %5, ptr %39, align 8, !tbaa !35
  store ptr %0, ptr %7, align 8, !tbaa !36
  %40 = getelementptr inbounds nuw i8, ptr %7, i64 48
  store ptr %9, ptr %40, align 8, !tbaa !37
  %41 = call i32 %spec.select(i32 noundef 1, ptr noundef nonnull %19, ptr noundef nonnull %7) #8
  %42 = icmp sgt i32 %41, 0
  br i1 %42, label %43, label %.thread44

43:                                               ; preds = %32
  %44 = load i32, ptr %36, align 8, !tbaa !29
  switch i32 %44, label %.thread [
    i32 1, label %45
    i32 2, label %48
  ]

45:                                               ; preds = %43
  %46 = load ptr, ptr %40, align 8, !tbaa !37
  %47 = call i32 @evp_pkey_ctx_get_params_strict(ptr noundef nonnull %0, ptr noundef %46) #8
  br label %51

48:                                               ; preds = %43
  %49 = load ptr, ptr %40, align 8, !tbaa !37
  %50 = call i32 @evp_pkey_ctx_set_params_strict(ptr noundef nonnull %0, ptr noundef %49) #8
  br label %51

51:                                               ; preds = %45, %48
  %.029 = phi i32 [ %50, %48 ], [ %47, %45 ]
  %52 = icmp sgt i32 %.029, 0
  br i1 %52, label %.thread, label %.thread44

.thread:                                          ; preds = %43, %51
  %.02943 = phi i32 [ %.029, %51 ], [ %41, %43 ]
  store i32 %.02943, ptr %38, align 4, !tbaa !34
  %53 = call i32 %spec.select(i32 noundef 2, ptr noundef nonnull %19, ptr noundef nonnull %7) #8
  %54 = load i32, ptr %38, align 4, !tbaa !34
  br label %.thread44

.thread44:                                        ; preds = %32, %.thread, %51
  %.1 = phi i32 [ %54, %.thread ], [ %.029, %51 ], [ %41, %32 ]
  %55 = getelementptr inbounds nuw i8, ptr %7, i64 120
  %56 = load ptr, ptr %55, align 8, !tbaa !38
  %.not.i = icmp eq ptr %56, null
  br i1 %.not.i, label %cleanup_translation_ctx.exit, label %57

57:                                               ; preds = %.thread44
  call void @CRYPTO_free(ptr noundef nonnull %56, ptr noundef nonnull @.str, i32 noundef 713) #8
  br label %cleanup_translation_ctx.exit

cleanup_translation_ctx.exit:                     ; preds = %57, %.thread44, %29, %21
  %.030 = phi i32 [ -2, %21 ], [ -1, %29 ], [ %.1, %.thread44 ], [ %.1, %57 ]
  call void @llvm.lifetime.end.p0(i64 80, ptr nonnull %9) #8
  call void @llvm.lifetime.end.p0(i64 64, ptr nonnull %8) #8
  call void @llvm.lifetime.end.p0(i64 144, ptr nonnull %7) #8
  ret i32 %.030
}